; Function Attrs: mustprogress nounwind uwtable
define void @_ZN7rocksdb12AllocTrackerD2Ev(ptr noundef nonnull align 8 captures(none) dereferenceable(18) %0) unnamed_addr #1 align 2 personality ptr @__gxx_personality_v0 {
  %2 = getelementptr inbounds nuw i8, ptr %0, i64 16
  %3 = load i8, ptr %2, align 8, !tbaa !15, !range !17, !noundef !18
  %4 = trunc nuw i8 %3 to i1
  %.pr.pre4.i = load ptr, ptr %0, align 8, !tbaa !4
  br i1 %4, label %_ZN7rocksdb12AllocTracker14DoneAllocatingEv.exit.i, label %5

5:                                                ; preds = %1
  %.not.i.i = icmp eq ptr %.pr.pre4.i, null
  br i1 %.not.i.i, label %_ZN7rocksdb12AllocTracker7FreeMemEv.exit, label %6

6:                                                ; preds = %5
  %7 = load atomic i64, ptr %.pr.pre4.i monotonic, align 8
  %.not1.i.i = icmp eq i64 %7, 0
  br i1 %.not1.i.i, label %8, label %11

8:                                                ; preds = %6
  %9 = getelementptr inbounds nuw i8, ptr %.pr.pre4.i, i64 32
  %10 = load ptr, ptr %9, align 8, !tbaa !19
  %.not2.i.i = icmp eq ptr %10, null
  br i1 %.not2.i.i, label %14, label %11

11:                                               ; preds = %8, %6
  %12 = getelementptr inbounds nuw i8, ptr %0, i64 8
  %13 = load atomic i64, ptr %12 monotonic, align 8
  invoke void @_ZN7rocksdb18WriteBufferManager15ScheduleFreeMemEm(ptr noundef nonnull align 8 dereferenceable(160) %.pr.pre4.i, i64 noundef %13)
          to label %.noexc unwind label %27

.noexc:                                           ; preds = %11
  %.pr.pre.pre.i = load ptr, ptr %0, align 8, !tbaa !4
  br label %14

14:                                               ; preds = %.noexc, %8
  %.pr.pre.i = phi ptr [ %.pr.pre.pre.i, %.noexc ], [ %.pr.pre4.i, %8 ]
  store i8 1, ptr %2, align 8, !tbaa !15
  br label %_ZN7rocksdb12AllocTracker14DoneAllocatingEv.exit.i

_ZN7rocksdb12AllocTracker14DoneAllocatingEv.exit.i: ; preds = %14, %1
  %.pr.i = phi ptr [ %.pr.pre.i, %14 ], [ %.pr.pre4.i, %1 ]
  %.not.i = icmp eq ptr %.pr.i, null
  br i1 %.not.i, label %_ZN7rocksdb12AllocTracker7FreeMemEv.exit, label %15

15:                                               ; preds = %_ZN7rocksdb12AllocTracker14DoneAllocatingEv.exit.i
  %16 = getelementptr inbounds nuw i8, ptr %0, i64 17
  %17 = load i8, ptr %16, align 1, !tbaa !16, !range !17, !noundef !18
  %18 = trunc nuw i8 %17 to i1
  br i1 %18, label %_ZN7rocksdb12AllocTracker7FreeMemEv.exit, label %19

19:                                               ; preds = %15
  %20 = load atomic i64, ptr %.pr.i monotonic, align 8
  %.not2.i = icmp eq i64 %20, 0
  br i1 %.not2.i, label %21, label %24

21:                                               ; preds = %19
  %22 = getelementptr inbounds nuw i8, ptr %.pr.i, i64 32
  %23 = load ptr, ptr %22, align 8, !tbaa !19
  %.not3.i = icmp eq ptr %23, null
  br i1 %.not3.i, label %.noexc1, label %24

24:                                               ; preds = %21, %19
  %25 = getelementptr inbounds nuw i8, ptr %0, i64 8
  %26 = load atomic i64, ptr %25 monotonic, align 8
  invoke void @_ZN7rocksdb18WriteBufferManager7FreeMemEm(ptr noundef nonnull align 8 dereferenceable(160) %.pr.i, i64 noundef %26)
          to label %.noexc1 unwind label %27

.noexc1:                                          ; preds = %24, %21
  store i8 1, ptr %16, align 1, !tbaa !16
  br label %_ZN7rocksdb12AllocTracker7FreeMemEv.exit

_ZN7rocksdb12AllocTracker7FreeMemEv.exit:         ; preds = %.noexc1, %15, %_ZN7rocksdb12AllocTracker14DoneAllocatingEv.exit.i, %5
  ret void

27:                                               ; preds = %24, %11
  %28 = landingpad { ptr, i32 }
          catch ptr null
  %29 = extractvalue { ptr, i32 } %28, 0
  tail call void @__clang_call_terminate(ptr %29) #6
  unreachable
}